((lp0
(itext_detection
TextBox
p1
(dp2
S'mid_x'
p3
I1739
sS'mid_y'
p4
I961
sS'conf'
p5
F95.0
sS'text'
p6
V42
p7
sS'color_id'
p8
I1
sS'w'
p9
I23
sS'h'
p10
I15
sS'y'
p11
I954
sS'x'
p12
I1728
sba(itext_detection
TextBox
p13
(dp14
g3
I1685
sg4
I1037
sg5
F89.0
sg6
V41
p15
sg8
I2
sg9
I20
sg10
I14
sg11
I1030
sg12
I1675
sba(itext_detection
TextBox
p16
(dp17
g3
I827
sg4
I1178
sg5
F85.0
sg6
V22
p18
sg8
I0
sg9
I22
sg10
I14
sg11
I1171
sg12
I816
sba(itext_detection
TextBox
p19
(dp20
g3
I1095
sg4
I1177
sg5
F88.0
sg6
V23
p21
sg8
I0
sg9
I22
sg10
I15
sg11
I1170
sg12
I1084
sba(itext_detection
TextBox
p22
(dp23
g3
I1462
sg4
I1320
sg5
F94.0
sg6
V37
p24
sg8
I2
sg9
I21
sg10
I15
sg11
I1313
sg12
I1452
sba(itext_detection
TextBox
p25
(dp26
g3
I1977
sg4
I1318
sg5
F82.0
sg6
V43
p27
sg8
I2
sg9
I23
sg10
I15
sg11
I1311
sg12
I1966
sba(itext_detection
TextBox
p28
(dp29
g3
I667
sg4
I1427
sg5
F92.0
sg6
V21
p30
sg8
I1
sg9
I19
sg10
I15
sg11
I1420
sg12
I658
sba(itext_detection
TextBox
p31
(dp32
g3
I1020
sg4
I1462
sg5
F69.0
sg6
V7
p33
sg8
I0
sg9
I20
sg10
I12
sg11
I1456
sg12
I1010
sba(itext_detection
TextBox
p34
(dp35
g3
I988
sg4
I1605
sg5
F58.0
sg6
V32
p36
sg8
I2
sg9
I21
sg10
I13
sg11
I1599
sg12
I978
sba(itext_detection
TextBox
p37
(dp38
g3
I977
sg4
I1712
sg5
F65.0
sg6
V31
p39
sg8
I2
sg9
I18
sg10
I13
sg11
I1706
sg12
I968
sba(itext_detection
TextBox
p40
(dp41
g3
I426
sg4
I1822
sg5
F76.0
sg6
V3
p42
sg8
I3
sg9
I21
sg10
I15
sg11
I1815
sg12
I416
sba(itext_detection
TextBox
p43
(dp44
g3
I1679
sg4
I1851
sg5
F84.0
sg6
V45
p45
sg8
I2
sg9
I24
sg10
I15
sg11
I1844
sg12
I1667
sba(itext_detection
TextBox
p46
(dp47
g3
I147
sg4
I1970
sg5
F67.0
sg6
V13
p48
sg8
I1
sg9
I23
sg10
I15
sg11
I1963
sg12
I136
sba(itext_detection
TextBox
p49
(dp50
g3
I512
sg4
I1984
sg5
F44.0
sg6
V8
p51
sg8
I0
sg9
I20
sg10
I10
sg11
I1979
sg12
I502
sba(itext_detection
TextBox
p52
(dp53
g3
I1827
sg4
I1993
sg5
F95.0
sg6
V47
p54
sg8
I1
sg9
I23
sg10
I14
sg11
I1986
sg12
I1816
sba(itext_detection
TextBox
p55
(dp56
g3
I2274
sg4
I1989
sg5
F95.0
sg6
V12
p57
sg8
I3
sg9
I21
sg10
I15
sg11
I1982
sg12
I2264
sba(itext_detection
TextBox
p58
(dp59
g3
I1447
sg4
I1998
sg5
F68.0
sg6
V35
p60
sg8
I2
sg9
I21
sg10
I14
sg11
I1991
sg12
I1437
sba(itext_detection
TextBox
p61
(dp62
g3
I1070
sg4
I2044
sg5
F95.0
sg6
V27
p63
sg8
I2
sg9
I22
sg10
I15
sg11
I2037
sg12
I1059
sba(itext_detection
TextBox
p64
(dp65
g3
I1597
sg4
I1068
sg5
F76.0
sg6
V40
p66
sg8
I2
sg9
I23
sg10
I14
sg11
I1061
sg12
I1586
sba(itext_detection
TextBox
p67
(dp68
g3
I245
sg4
I1211
sg5
F89.0
sg6
V2
p69
sg8
I0
sg9
I11
sg10
I15
sg11
I1204
sg12
I240
sba(itext_detection
TextBox
p70
(dp71
g3
I869
sg4
I1320
sg5
F93.0
sg6
V1
p72
sg8
I0
sg9
I4
sg10
I12
sg11
I1314
sg12
I867
sba(itext_detection
TextBox
p73
(dp74
g3
I1575
sg4
I1333
sg5
F86.0
sg6
V36
p75
sg8
I2
sg9
I21
sg10
I15
sg11
I1326
sg12
I1565
sba(itext_detection
TextBox
p76
(dp77
g3
I1274
sg4
I1355
sg5
F89.0
sg6
V24
p78
sg8
I2
sg9
I21
sg10
I14
sg11
I1348
sg12
I1264
sba(itext_detection
TextBox
p79
(dp80
g3
I1790
sg4
I1352
sg5
F64.0
sg6
V44
p81
sg8
I2
sg9
I23
sg10
I13
sg11
I1346
sg12
I1779
sba(itext_detection
TextBox
p82
(dp83
g3
I924
sg4
I1423
sg5
F93.0
sg6
V20
p84
sg8
I2
sg9
I23
sg10
I15
sg11
I1416
sg12
I913
sba(itext_detection
TextBox
p85
(dp86
g3
I578
sg4
I1570
sg5
F25.0
sg6
V6
p87
sg8
I0
sg9
I19
sg10
I13
sg11
I1564
sg12
I569
sba(itext_detection
TextBox
p88
(dp89
g3
I1866
sg4
I1816
sg5
F77.0
sg6
V46
p90
sg8
I2
sg9
I23
sg10
I14
sg11
I1809
sg12
I1855
sba(itext_detection
TextBox
p91
(dp92
g3
I316
sg4
I2004
sg5
F94.0
sg6
V10
p93
sg8
I3
sg9
I22
sg10
I13
sg11
I1998
sg12
I305
sba(itext_detection
TextBox
p94
(dp95
g3
I1154
sg4
I1999
sg5
F95.0
sg6
V26
p96
sg8
I1
sg9
I23
sg10
I15
sg11
I1992
sg12
I1143
sba(lp97
(icircle_detection
Circle
p98
(dp99
g11
I2024
sg12
I401
sS'r'
p100
I11
sba(icircle_detection
Circle
p101
(dp102
g11
I2022
sg12
I581
sg100
I11
sba(icircle_detection
Circle
p103
(dp104
g11
I2022
sg12
I142
sg100
I11
sba(icircle_detection
Circle
p105
(dp106
g11
I2020
sg12
I1242
sg100
I11
sba(icircle_detection
Circle
p107
(dp108
g11
I2020
sg12
I1020
sg100
I11
sba(icircle_detection
Circle
p109
(dp110
g11
I2019
sg12
I908
sg100
I11
sba(icircle_detection
Circle
p111
(dp112
g11
I2017
sg12
I1533
sg100
I11
sba(icircle_detection
Circle
p113
(dp114
g11
I2012
sg12
I1913
sg100
I11
sba(icircle_detection
Circle
p115
(dp116
g11
I2010
sg12
I2360
sg100
I11
sba(icircle_detection
Circle
p117
(dp118
g11
I1947
sg12
I1029
sg100
I11
sba(icircle_detection
Circle
p119
(dp120
g11
I1892
sg12
I1032
sg100
I8
sba(icircle_detection
Circle
p121
(dp122
g11
I1876
sg12
I913
sg100
I11
sba(icircle_detection
Circle
p123
(dp124
g11
I1871
sg12
I1765
sg100
I11
sba(icircle_detection
Circle
p125
(dp126
g11
I1870
sg12
I1907
sg100
I11
sba(icircle_detection
Circle
p127
(dp128
g11
I1843
sg12
I951
sg100
I7
sba(icircle_detection
Circle
p129
(dp130
g11
I1843
sg12
I512
sg100
I11
sba(icircle_detection
Circle
p131
(dp132
g11
I1804
sg12
I841
sg100
I11
sba(icircle_detection
Circle
p133
(dp134
g11
I1733
sg12
I1064
sg100
I12
sba(icircle_detection
Circle
p135
(dp136
g11
I1625
sg12
I1074
sg100
I12
sba(icircle_detection
Circle
p137
(dp138
g11
I1590
sg12
I664
sg100
I12
sba(icircle_detection
Circle
p139
(dp140
g11
I1588
sg12
I1365
sg100
I11
sba(icircle_detection
Circle
p141
(dp142
g11
I1483
sg12
I1105
sg100
I11
sba(icircle_detection
Circle
p143
(dp144
g11
I1448
sg12
I755
sg100
I11
sba(icircle_detection
Circle
p145
(dp146
g11
I1447
sg12
I887
sg100
I11
sba(icircle_detection
Circle
p147
(dp148
g11
I1375
sg12
I1360
sg100
I11
sba(icircle_detection
Circle
p149
(dp150
g11
I1375
sg12
I1468
sg100
I11
sba(icircle_detection
Circle
p151
(dp152
g11
I1373
sg12
I1876
sg100
I11
sba(icircle_detection
Circle
p153
(dp154
g11
I1372
sg12
I1983
sg100
I11
sba(icircle_detection
Circle
p155
(dp156
g11
I1372
sg12
I1646
sg100
I11
sba(icircle_detection
Circle
p157
(dp158
g11
I1340
sg12
I1115
sg100
I11
sba(icircle_detection
Circle
p159
(dp160
g11
I1340
sg12
I962
sg100
I11
sba(icircle_detection
Circle
p161
(dp162
g11
I1234
sg12
I598
sg100
I11
sba(icircle_detection
Circle
p163
(dp164
g11
I1232
sg12
I340
sg100
I11
sba(icircle_detection
Circle
p165
(dp166
g11
I1198
sg12
I912
sg100
I11
sba(icircle_detection
Circle
p167
(dp168
g11
I1197
sg12
I1180
sg100
I11
sba(icircle_detection
Circle
p169
(dp170
g11
I1195
sg12
I1539
sg100
I11
sba(icircle_detection
Circle
p171
(dp172
g11
I1195
sg12
I1682
sg100
I12
sba(icircle_detection
Circle
p173
(dp174
g11
I1180
sg12
I337
sg100
I7
sba(icircle_detection
Circle
p175
(dp176
g11
I1175
sg12
I1459
sg100
I7
sba(icircle_detection
Circle
p177
(dp178
g11
I1088
sg12
I1682
sg100
I11
sba(icircle_detection
Circle
p179
(dp180
g11
I1056
sg12
I637
sg100
I11
sba(icircle_detection
Circle
p181
(dp182
g11
I1053
sg12
I378
sg100
I11
sba(icircle_detection
Circle
p183
(dp184
g11
I1016
sg12
I1775
sg100
I11
sba(icircle_detection
Circle
p185
(dp186
g11
I877
sg12
I676
sg100
I11
sba(icircle_detection
Circle
p187
(dp188
g11
I872
sg12
I415
sg100
I11
sba(icircle_detection
Circle
p189
(dp190
g11
I367
sg12
I1392
sg100
I11
sbatp191
.